target datalayout = "e-m:e-p270:32:32-p271:32:32-p272:64:64-i64:64-i128:128-f80:128-n8:16:32:64-S128"
target triple = "x86_64-pc-linux-gnu"

%class.V3Graph = type { ptr, %class.V3List.1 }
%class.V3List.1 = type { ptr, ptr }

@_ZTV7V3Graph = dso_local unnamed_addr constant { [7 x ptr] } { [7 x ptr] [ptr null, ptr @_ZTI7V3Graph, ptr @_ZN7V3GraphD1Ev, ptr @_ZN7V3GraphD0Ev, ptr @_ZNK7V3Graph10dotRankDirB5cxx11Ev, ptr @_ZN7V3Graph14loopsMessageCbEP13V3GraphVertex, ptr @_ZN7V3Graph13loopsVertexCbEP13V3GraphVertex] }, align 8

; Function Attrs: mustprogress nounwind uwtable
define linkonce_odr dso_local void @_ZN6V3ListI13V3GraphVertexXadL_ZNS0_5linksEvEES0_ED2Ev(ptr noundef nonnull align 8 dereferenceable(16) %0) unnamed_addr #5 comdat align 2 {
  %2 = alloca ptr, align 8
  store ptr %0, ptr %2, align 8, !tbaa !36
  ret void
}

; Function Attrs: mustprogress nounwind uwtable
define dso_local void @_ZN7V3GraphD2Ev(ptr noundef nonnull align 8 dereferenceable(24) %0) unnamed_addr #5 align 2 personality ptr @__gxx_personality_v0 {
  %2 = alloca ptr, align 8
  store ptr %0, ptr %2, align 8, !tbaa !9
  %3 = load ptr, ptr %2, align 8
  store ptr getelementptr inbounds inrange(-16, 40) ({ [7 x ptr] }, ptr @_ZTV7V3Graph, i32 0, i32 0, i32 2), ptr %3, align 8, !tbaa !11
  invoke void @_ZN7V3Graph5clearEv(ptr noundef nonnull align 8 dereferenceable(24) %3)
          to label %4 unwind label %6

4:                                                ; preds = %1
  %5 = getelementptr inbounds nuw %class.V3Graph, ptr %3, i32 0, i32 1
  call void @_ZN6V3ListI13V3GraphVertexXadL_ZNS0_5linksEvEES0_ED2Ev(ptr noundef nonnull align 8 dereferenceable(16) %5) #3
  ret void

6:                                                ; preds = %1
  %7 = landingpad { ptr, i32 }
          catch ptr null
  %8 = extractvalue { ptr, i32 } %7, 0
  call void @__clang_call_terminate(ptr %8) #22
  unreachable
}