; Function Attrs: mustprogress nounwind uwtable
define dso_local void @_ZN7V3GraphD2Ev(ptr noundef nonnull align 8 captures(none) dereferenceable(24) initializes((0, 8)) %0) unnamed_addr #11 align 2 personality ptr @__gxx_personality_v0 {
  store ptr getelementptr inbounds nuw inrange(-16, 40) (i8, ptr @_ZTV7V3Graph, i64 16), ptr %0, align 8, !tbaa !4
  invoke void @_ZN7V3Graph5clearEv(ptr noundef nonnull align 8 dereferenceable(24) %0)
          to label %2 unwind label %3

2:                                                ; preds = %1
  ret void

3:                                                ; preds = %1
  %4 = landingpad { ptr, i32 }
          catch ptr null
  %5 = extractvalue { ptr, i32 } %4, 0
  tail call void @__clang_call_terminate(ptr %5) #32
  unreachable
}